target datalayout = "e-m:e-p270:32:32-p271:32:32-p272:64:64-i64:64-i128:128-f80:128-n8:16:32:64-S128"
target triple = "x86_64-pc-linux-gnu"

@hf_diq = internal global i32 0, align 4
@hf_diq_dpi = internal global i32 0, align 4
@hf_diq_bl = internal global i32 0, align 4
@hf_diq_sb = internal global i32 0, align 4
@hf_diq_nt = internal global i32 0, align 4
@hf_diq_iv = internal global i32 0, align 4
@ett_diq = internal global i32 0, align 4

; Function Attrs: null_pointer_is_valid sspstrong uwtable
define internal void @get_DIQ(ptr noundef %0, ptr noundef %1, ptr noundef %2) #0 {
  %4 = alloca ptr, align 8
  %5 = alloca ptr, align 8
  %6 = alloca ptr, align 8
  %7 = alloca ptr, align 8
  %8 = alloca ptr, align 8
  store ptr %0, ptr %4, align 8
  store ptr %1, ptr %5, align 8
  store ptr %2, ptr %6, align 8
  call void @llvm.lifetime.start.p0(i64 8, ptr %7) #8
  call void @llvm.lifetime.start.p0(i64 8, ptr %8) #8
  %9 = load ptr, ptr %6, align 8
  %10 = load i32, ptr @hf_diq, align 4
  %11 = load ptr, ptr %4, align 8
  %12 = load ptr, ptr %5, align 8
  %13 = load i8, ptr %12, align 1
  %14 = zext i8 %13 to i32
  %15 = call ptr @proto_tree_add_item(ptr noundef %9, i32 noundef %10, ptr noundef %11, i32 noundef %14, i32 noundef 1, i32 noundef -2147483648)
  store ptr %15, ptr %7, align 8
  %16 = load ptr, ptr %7, align 8
  %17 = load i32, ptr @ett_diq, align 4
  %18 = call ptr @proto_item_add_subtree(ptr noundef %16, i32 noundef %17)
  store ptr %18, ptr %8, align 8
  %19 = load ptr, ptr %8, align 8
  %20 = load i32, ptr @hf_diq_dpi, align 4
  %21 = load ptr, ptr %4, align 8
  %22 = load ptr, ptr %5, align 8
  %23 = load i8, ptr %22, align 1
  %24 = zext i8 %23 to i32
  %25 = call ptr @proto_tree_add_item(ptr noundef %19, i32 noundef %20, ptr noundef %21, i32 noundef %24, i32 noundef 1, i32 noundef -2147483648)
  %26 = load ptr, ptr %8, align 8
  %27 = load i32, ptr @hf_diq_bl, align 4
  %28 = load ptr, ptr %4, align 8
  %29 = load ptr, ptr %5, align 8
  %30 = load i8, ptr %29, align 1
  %31 = zext i8 %30 to i32
  %32 = call ptr @proto_tree_add_item(ptr noundef %26, i32 noundef %27, ptr noundef %28, i32 noundef %31, i32 noundef 1, i32 noundef -2147483648)
  %33 = load ptr, ptr %8, align 8
  %34 = load i32, ptr @hf_diq_sb, align 4
  %35 = load ptr, ptr %4, align 8
  %36 = load ptr, ptr %5, align 8
  %37 = load i8, ptr %36, align 1
  %38 = zext i8 %37 to i32
  %39 = call ptr @proto_tree_add_item(ptr noundef %33, i32 noundef %34, ptr noundef %35, i32 noundef %38, i32 noundef 1, i32 noundef -2147483648)
  %40 = load ptr, ptr %8, align 8
  %41 = load i32, ptr @hf_diq_nt, align 4
  %42 = load ptr, ptr %4, align 8
  %43 = load ptr, ptr %5, align 8
  %44 = load i8, ptr %43, align 1
  %45 = zext i8 %44 to i32
  %46 = call ptr @proto_tree_add_item(ptr noundef %40, i32 noundef %41, ptr noundef %42, i32 noundef %45, i32 noundef 1, i32 noundef -2147483648)
  %47 = load ptr, ptr %8, align 8
  %48 = load i32, ptr @hf_diq_iv, align 4
  %49 = load ptr, ptr %4, align 8
  %50 = load ptr, ptr %5, align 8
  %51 = load i8, ptr %50, align 1
  %52 = zext i8 %51 to i32
  %53 = call ptr @proto_tree_add_item(ptr noundef %47, i32 noundef %48, ptr noundef %49, i32 noundef %52, i32 noundef 1, i32 noundef -2147483648)
  %54 = load ptr, ptr %5, align 8
  %55 = load i8, ptr %54, align 1
  %56 = add i8 %55, 1
  store i8 %56, ptr %54, align 1
  call void @llvm.lifetime.end.p0(i64 8, ptr %8) #8
  call void @llvm.lifetime.end.p0(i64 8, ptr %7) #8
  ret void
}